target datalayout = "e-m:e-p270:32:32-p271:32:32-p272:64:64-i64:64-i128:128-f80:128-n8:16:32:64-S128"
target triple = "x86_64-pc-linux-gnu"

%struct.DWTContext = type { ptr, ptr, i32, i32, i32, i32, i32, ptr, %union.anon, %union.anon, ptr, ptr, ptr, ptr, [8 x %struct.DWTCompose] }
%union.anon = type { ptr }
%struct.DWTCompose = type { [8 x ptr], i32 }

; Function Attrs: alwaysinline nounwind willreturn memory(none) uwtable
define internal i32 @avpriv_mirror(i32 noundef %0, i32 noundef %1) #3 {
  %3 = alloca i32, align 4
  %4 = alloca i32, align 4
  %5 = alloca i32, align 4
  store i32 %0, ptr %4, align 4, !tbaa !11
  store i32 %1, ptr %5, align 4, !tbaa !11
  %6 = load i32, ptr %5, align 4, !tbaa !11
  %7 = icmp ne i32 %6, 0
  br i1 %7, label %9, label %8

8:                                                ; preds = %2
  store i32 0, ptr %3, align 4
  br label %27

9:                                                ; preds = %2
  br label %10

10:                                               ; preds = %24, %9
  %11 = load i32, ptr %4, align 4, !tbaa !11
  %12 = load i32, ptr %5, align 4, !tbaa !11
  %13 = icmp ugt i32 %11, %12
  br i1 %13, label %14, label %25

14:                                               ; preds = %10
  %15 = load i32, ptr %4, align 4, !tbaa !11
  %16 = sub nsw i32 0, %15
  store i32 %16, ptr %4, align 4, !tbaa !11
  %17 = load i32, ptr %4, align 4, !tbaa !11
  %18 = icmp slt i32 %17, 0
  br i1 %18, label %19, label %24

19:                                               ; preds = %14
  %20 = load i32, ptr %5, align 4, !tbaa !11
  %21 = mul nsw i32 2, %20
  %22 = load i32, ptr %4, align 4, !tbaa !11
  %23 = add nsw i32 %22, %21
  store i32 %23, ptr %4, align 4, !tbaa !11
  br label %24

24:                                               ; preds = %19, %14
  br label %10, !llvm.loop !86

25:                                               ; preds = %10
  %26 = load i32, ptr %4, align 4, !tbaa !11
  store i32 %26, ptr %3, align 4
  br label %27

27:                                               ; preds = %25, %8
  %28 = load i32, ptr %3, align 4
  ret i32 %28
}

; Function Attrs: nounwind uwtable
define internal void @spatial_compose_dirac53i_dy_8bit(ptr noundef %0, i32 noundef %1, i32 noundef %2, i32 noundef %3, i32 noundef %4) #0 {
  %6 = alloca ptr, align 8
  %7 = alloca i32, align 4
  %8 = alloca i32, align 4
  %9 = alloca i32, align 4
  %10 = alloca i32, align 4
  %11 = alloca ptr, align 8
  %12 = alloca ptr, align 8
  %13 = alloca ptr, align 8
  %14 = alloca i32, align 4
  %15 = alloca [4 x ptr], align 16
  store ptr %0, ptr %6, align 8, !tbaa !4
  store i32 %1, ptr %7, align 4, !tbaa !11
  store i32 %2, ptr %8, align 4, !tbaa !11
  store i32 %3, ptr %9, align 4, !tbaa !11
  store i32 %4, ptr %10, align 4, !tbaa !11
  call void @llvm.lifetime.start.p0(i64 8, ptr %11) #5
  %16 = load ptr, ptr %6, align 8, !tbaa !4
  %17 = getelementptr inbounds nuw %struct.DWTContext, ptr %16, i32 0, i32 8
  %18 = load ptr, ptr %17, align 8, !tbaa !32
  store ptr %18, ptr %11, align 8, !tbaa !45
  call void @llvm.lifetime.start.p0(i64 8, ptr %12) #5
  %19 = load ptr, ptr %6, align 8, !tbaa !4
  %20 = getelementptr inbounds nuw %struct.DWTContext, ptr %19, i32 0, i32 9
  %21 = load ptr, ptr %20, align 8, !tbaa !32
  store ptr %21, ptr %12, align 8, !tbaa !45
  call void @llvm.lifetime.start.p0(i64 8, ptr %13) #5
  %22 = load ptr, ptr %6, align 8, !tbaa !4
  %23 = getelementptr inbounds nuw %struct.DWTContext, ptr %22, i32 0, i32 14
  %24 = getelementptr inbounds [8 x %struct.DWTCompose], ptr %23, i64 0, i64 0
  %25 = load i32, ptr %7, align 4, !tbaa !11
  %26 = sext i32 %25 to i64
  %27 = getelementptr inbounds %struct.DWTCompose, ptr %24, i64 %26
  store ptr %27, ptr %13, align 8, !tbaa !42
  call void @llvm.lifetime.start.p0(i64 4, ptr %14) #5
  %28 = load ptr, ptr %13, align 8, !tbaa !42
  %29 = getelementptr inbounds nuw %struct.DWTCompose, ptr %28, i32 0, i32 1
  %30 = load i32, ptr %29, align 8, !tbaa !27
  store i32 %30, ptr %14, align 4, !tbaa !11
  call void @llvm.lifetime.start.p0(i64 32, ptr %15) #5
  %31 = load ptr, ptr %13, align 8, !tbaa !42
  %32 = getelementptr inbounds nuw %struct.DWTCompose, ptr %31, i32 0, i32 0
  %33 = getelementptr inbounds [8 x ptr], ptr %32, i64 0, i64 0
  %34 = load ptr, ptr %33, align 8, !tbaa !44
  store ptr %34, ptr %15, align 8, !tbaa !44
  %35 = getelementptr inbounds ptr, ptr %15, i64 1
  %36 = load ptr, ptr %13, align 8, !tbaa !42
  %37 = getelementptr inbounds nuw %struct.DWTCompose, ptr %36, i32 0, i32 0
  %38 = getelementptr inbounds [8 x ptr], ptr %37, i64 0, i64 1
  %39 = load ptr, ptr %38, align 8, !tbaa !44
  store ptr %39, ptr %35, align 8, !tbaa !44
  %40 = getelementptr inbounds ptr, ptr %15, i64 2
  %41 = getelementptr inbounds ptr, ptr %15, i64 4
  br label %42

42:                                               ; preds = %42, %5
  %43 = phi ptr [ %40, %5 ], [ %44, %42 ]
  store ptr null, ptr %43, align 8, !tbaa !44
  %44 = getelementptr inbounds ptr, ptr %43, i64 1
  %45 = icmp eq ptr %44, %41
  br i1 %45, label %46, label %42

46:                                               ; preds = %42
  %47 = load ptr, ptr %6, align 8, !tbaa !4
  %48 = getelementptr inbounds nuw %struct.DWTContext, ptr %47, i32 0, i32 0
  %49 = load ptr, ptr %48, align 8, !tbaa !16
  %50 = load i32, ptr %14, align 4, !tbaa !11
  %51 = add nsw i32 %50, 1
  %52 = load i32, ptr %9, align 4, !tbaa !11
  %53 = sub nsw i32 %52, 1
  %54 = call i32 @avpriv_mirror(i32 noundef %51, i32 noundef %53) #6
  %55 = load i32, ptr %10, align 4, !tbaa !11
  %56 = mul nsw i32 %54, %55
  %57 = sext i32 %56 to i64
  %58 = getelementptr inbounds i8, ptr %49, i64 %57
  %59 = getelementptr inbounds [4 x ptr], ptr %15, i64 0, i64 2
  store ptr %58, ptr %59, align 16, !tbaa !44
  %60 = load ptr, ptr %6, align 8, !tbaa !4
  %61 = getelementptr inbounds nuw %struct.DWTContext, ptr %60, i32 0, i32 0
  %62 = load ptr, ptr %61, align 8, !tbaa !16
  %63 = load i32, ptr %14, align 4, !tbaa !11
  %64 = add nsw i32 %63, 2
  %65 = load i32, ptr %9, align 4, !tbaa !11
  %66 = sub nsw i32 %65, 1
  %67 = call i32 @avpriv_mirror(i32 noundef %64, i32 noundef %66) #6
  %68 = load i32, ptr %10, align 4, !tbaa !11
  %69 = mul nsw i32 %67, %68
  %70 = sext i32 %69 to i64
  %71 = getelementptr inbounds i8, ptr %62, i64 %70
  %72 = getelementptr inbounds [4 x ptr], ptr %15, i64 0, i64 3
  store ptr %71, ptr %72, align 8, !tbaa !44
  %73 = load i32, ptr %14, align 4, !tbaa !11
  %74 = add nsw i32 %73, 1
  %75 = load i32, ptr %9, align 4, !tbaa !11
  %76 = icmp ult i32 %74, %75
  br i1 %76, label %77, label %86

77:                                               ; preds = %46
  %78 = load ptr, ptr %11, align 8, !tbaa !45
  %79 = getelementptr inbounds [4 x ptr], ptr %15, i64 0, i64 1
  %80 = load ptr, ptr %79, align 8, !tbaa !44
  %81 = getelementptr inbounds [4 x ptr], ptr %15, i64 0, i64 2
  %82 = load ptr, ptr %81, align 16, !tbaa !44
  %83 = getelementptr inbounds [4 x ptr], ptr %15, i64 0, i64 3
  %84 = load ptr, ptr %83, align 8, !tbaa !44
  %85 = load i32, ptr %8, align 4, !tbaa !11
  call void %78(ptr noundef %80, ptr noundef %82, ptr noundef %84, i32 noundef %85)
  br label %86

86:                                               ; preds = %77, %46
  %87 = load i32, ptr %14, align 4, !tbaa !11
  %88 = add nsw i32 %87, 0
  %89 = load i32, ptr %9, align 4, !tbaa !11
  %90 = icmp ult i32 %88, %89
  br i1 %90, label %91, label %100

91:                                               ; preds = %86
  %92 = load ptr, ptr %12, align 8, !tbaa !45
  %93 = getelementptr inbounds [4 x ptr], ptr %15, i64 0, i64 0
  %94 = load ptr, ptr %93, align 16, !tbaa !44
  %95 = getelementptr inbounds [4 x ptr], ptr %15, i64 0, i64 1
  %96 = load ptr, ptr %95, align 8, !tbaa !44
  %97 = getelementptr inbounds [4 x ptr], ptr %15, i64 0, i64 2
  %98 = load ptr, ptr %97, align 16, !tbaa !44
  %99 = load i32, ptr %8, align 4, !tbaa !11
  call void %92(ptr noundef %94, ptr noundef %96, ptr noundef %98, i32 noundef %99)
  br label %100

100:                                              ; preds = %91, %86
  %101 = load i32, ptr %14, align 4, !tbaa !11
  %102 = sub nsw i32 %101, 1
  %103 = load i32, ptr %9, align 4, !tbaa !11
  %104 = icmp ult i32 %102, %103
  br i1 %104, label %105, label %115

105:                                              ; preds = %100
  %106 = load ptr, ptr %6, align 8, !tbaa !4
  %107 = getelementptr inbounds nuw %struct.DWTContext, ptr %106, i32 0, i32 13
  %108 = load ptr, ptr %107, align 8, !tbaa !33
  %109 = getelementptr inbounds [4 x ptr], ptr %15, i64 0, i64 0
  %110 = load ptr, ptr %109, align 16, !tbaa !44
  %111 = load ptr, ptr %6, align 8, !tbaa !4
  %112 = getelementptr inbounds nuw %struct.DWTContext, ptr %111, i32 0, i32 1
  %113 = load ptr, ptr %112, align 8, !tbaa !25
  %114 = load i32, ptr %8, align 4, !tbaa !11
  call void %108(ptr noundef %110, ptr noundef %113, i32 noundef %114)
  br label %115

115:                                              ; preds = %105, %100
  %116 = load i32, ptr %14, align 4, !tbaa !11
  %117 = add nsw i32 %116, 0
  %118 = load i32, ptr %9, align 4, !tbaa !11
  %119 = icmp ult i32 %117, %118
  br i1 %119, label %120, label %130

120:                                              ; preds = %115
  %121 = load ptr, ptr %6, align 8, !tbaa !4
  %122 = getelementptr inbounds nuw %struct.DWTContext, ptr %121, i32 0, i32 13
  %123 = load ptr, ptr %122, align 8, !tbaa !33
  %124 = getelementptr inbounds [4 x ptr], ptr %15, i64 0, i64 1
  %125 = load ptr, ptr %124, align 8, !tbaa !44
  %126 = load ptr, ptr %6, align 8, !tbaa !4
  %127 = getelementptr inbounds nuw %struct.DWTContext, ptr %126, i32 0, i32 1
  %128 = load ptr, ptr %127, align 8, !tbaa !25
  %129 = load i32, ptr %8, align 4, !tbaa !11
  call void %123(ptr noundef %125, ptr noundef %128, i32 noundef %129)
  br label %130

130:                                              ; preds = %120, %115
  %131 = getelementptr inbounds [4 x ptr], ptr %15, i64 0, i64 2
  %132 = load ptr, ptr %131, align 16, !tbaa !44
  %133 = load ptr, ptr %13, align 8, !tbaa !42
  %134 = getelementptr inbounds nuw %struct.DWTCompose, ptr %133, i32 0, i32 0
  %135 = getelementptr inbounds [8 x ptr], ptr %134, i64 0, i64 0
  store ptr %132, ptr %135, align 8, !tbaa !44
  %136 = getelementptr inbounds [4 x ptr], ptr %15, i64 0, i64 3
  %137 = load ptr, ptr %136, align 8, !tbaa !44
  %138 = load ptr, ptr %13, align 8, !tbaa !42
  %139 = getelementptr inbounds nuw %struct.DWTCompose, ptr %138, i32 0, i32 0
  %140 = getelementptr inbounds [8 x ptr], ptr %139, i64 0, i64 1
  store ptr %137, ptr %140, align 8, !tbaa !44
  %141 = load ptr, ptr %13, align 8, !tbaa !42
  %142 = getelementptr inbounds nuw %struct.DWTCompose, ptr %141, i32 0, i32 1
  %143 = load i32, ptr %142, align 8, !tbaa !27
  %144 = add nsw i32 %143, 2
  store i32 %144, ptr %142, align 8, !tbaa !27
  call void @llvm.lifetime.end.p0(i64 32, ptr %15) #5
  call void @llvm.lifetime.end.p0(i64 4, ptr %14) #5
  call void @llvm.lifetime.end.p0(i64 8, ptr %13) #5
  call void @llvm.lifetime.end.p0(i64 8, ptr %12) #5
  call void @llvm.lifetime.end.p0(i64 8, ptr %11) #5
  ret void
}